ccopy_reg
_reconstructor
p0
(cgoogle.oauth2.credentials
Credentials
p1
c__builtin__
object
p2
Ntp3
Rp4
(dp5
S'_token_uri'
p6
Vhttps://oauth2.googleapis.com/token
p7
sS'_client_secret'
p8
VHpSBfqVl0lOzECHej9vaM-lq
p9
sS'_id_token'
p10
NsS'token'
p11
Vya29.GluAB8pCc89NepsIzvqSHqpT6f4ysH_90JbnYJXH2nDXsX_TbmOSodzYypqU6pq3sKUF_zw6UkWfWpwi6f8zu1qQHuQXkKjTnnFnduPoJ1AqG-0776GZ-HB2kBbW
p12
sS'_refresh_token'
p13
V1/VS51Zsp-WbdJlx1XflCBh9BDiANXWnvS40wWPOweXsY
p14
sS'_scopes'
p15
(lp16
S'https://www.googleapis.com/auth/spreadsheets.readonly'
p17
asS'_client_id'
p18
V25816530879-bqksedcus9r8in7jppgen5a1uvhm9pd3.apps.googleusercontent.com
p19
sS'expiry'
p20
cdatetime
datetime
p21
(S'\x07\xe3\t\n\x166\r\x042\x98'
p22
tp23
Rp24
sb.